; Function Attrs: mustprogress nounwind uwtable
define dso_local void @_ZNSt16invalid_argumentD0Ev(ptr noundef nonnull align 8 dereferenceable(16) initializes((0, 8)) %0) unnamed_addr #0 align 2 personality ptr @__gxx_personality_v0 {
  store ptr getelementptr inbounds nuw inrange(-16, 24) (i8, ptr @_ZTVSt11logic_error, i64 16), ptr %0, align 8, !tbaa !4
  %2 = getelementptr inbounds nuw i8, ptr %0, i64 8
  %3 = load ptr, ptr %2, align 8, !tbaa !7
  %4 = getelementptr inbounds i8, ptr %3, i64 -8
  %5 = atomicrmw add ptr %4, i32 -1 seq_cst, align 4
  %6 = add i32 %5, -1
  %7 = icmp slt i32 %6, 0
  br i1 %7, label %8, label %_ZNSt11logic_errorD2Ev.exit

8:                                                ; preds = %1
  %9 = getelementptr inbounds i8, ptr %3, i64 -24
  tail call void @_ZdlPv(ptr noundef nonnull %9) #4
  br label %_ZNSt11logic_errorD2Ev.exit

_ZNSt11logic_errorD2Ev.exit:                      ; preds = %1, %8
  tail call void @_ZNSt9exceptionD2Ev(ptr noundef nonnull align 8 dereferenceable(16) %0) #4
  tail call void @_ZdlPvm(ptr noundef nonnull %0, i64 noundef 16) #5
  ret void
}